; Function Attrs: mustprogress uwtable
define hidden void @_ZN4ncnn12LSTM_x86_avxC2Ev(ptr noundef nonnull align 8 dereferenceable(1024) %0) unnamed_addr #2 align 2 personality ptr @__gxx_personality_v0 {
  tail call void @_ZN4ncnn4LSTMC2Ev(ptr noundef nonnull align 8 dereferenceable(664) %0)
  store ptr getelementptr inbounds nuw inrange(-16, 80) (i8, ptr @_ZTVN4ncnn12LSTM_x86_avxE, i64 16), ptr %0, align 8, !tbaa !4
  %2 = getelementptr inbounds nuw i8, ptr %0, i64 664
  %3 = getelementptr inbounds nuw i8, ptr %0, i64 696
  %4 = getelementptr inbounds nuw i8, ptr %0, i64 728
  %5 = getelementptr inbounds nuw i8, ptr %0, i64 768
  %6 = getelementptr inbounds nuw i8, ptr %0, i64 800
  %7 = getelementptr inbounds nuw i8, ptr %0, i64 840
  %8 = getelementptr inbounds nuw i8, ptr %0, i64 872
  %9 = getelementptr inbounds nuw i8, ptr %0, i64 912
  %10 = getelementptr inbounds nuw i8, ptr %0, i64 944
  %11 = getelementptr inbounds nuw i8, ptr %0, i64 984
  %12 = getelementptr inbounds nuw i8, ptr %0, i64 1016
  store i64 0, ptr %12, align 8, !tbaa !17
  %13 = getelementptr inbounds nuw i8, ptr %0, i64 8
  store i8 0, ptr %13, align 8, !tbaa !144
  %14 = getelementptr inbounds nuw i8, ptr %0, i64 9
  store i8 0, ptr %14, align 1, !tbaa !145
  tail call void @llvm.memset.p0.i64(ptr noundef nonnull align 8 dereferenceable(28) %2, i8 0, i64 28, i1 false)
  tail call void @llvm.memset.p0.i64(ptr noundef nonnull align 8 dereferenceable(28) %3, i8 0, i64 28, i1 false)
  tail call void @llvm.memset.p0.i64(ptr noundef nonnull align 8 dereferenceable(36) %4, i8 0, i64 36, i1 false)
  tail call void @llvm.memset.p0.i64(ptr noundef nonnull align 8 dereferenceable(28) %5, i8 0, i64 28, i1 false)
  tail call void @llvm.memset.p0.i64(ptr noundef nonnull align 8 dereferenceable(36) %6, i8 0, i64 36, i1 false)
  tail call void @llvm.memset.p0.i64(ptr noundef nonnull align 8 dereferenceable(28) %7, i8 0, i64 28, i1 false)
  tail call void @llvm.memset.p0.i64(ptr noundef nonnull align 8 dereferenceable(36) %8, i8 0, i64 36, i1 false)
  tail call void @llvm.memset.p0.i64(ptr noundef nonnull align 8 dereferenceable(28) %9, i8 0, i64 28, i1 false)
  tail call void @llvm.memset.p0.i64(ptr noundef nonnull align 8 dereferenceable(36) %10, i8 0, i64 36, i1 false)
  tail call void @llvm.memset.p0.i64(ptr noundef nonnull align 8 dereferenceable(28) %11, i8 0, i64 28, i1 false)
  ret void
}